target datalayout = "e-m:e-p270:32:32-p271:32:32-p272:64:64-i64:64-i128:128-f80:128-n8:16:32:64-S128"
target triple = "x86_64-pc-linux-gnu"

%struct.lzw_stream_s = type { ptr, i32, i32, ptr, i32, i32, ptr, i32, ptr }
%struct.lzw_internal_state = type { i16, i64, i64, i64, i64, ptr, ptr, ptr, ptr, ptr }

; Function Attrs: nounwind uwtable
define i32 @lzwInflateEnd(ptr noundef %0) #0 {
  %2 = alloca ptr, align 8
  store ptr %0, ptr %2, align 8
  %3 = load ptr, ptr %2, align 8
  %4 = getelementptr inbounds %struct.lzw_stream_s, ptr %3, i32 0, i32 8
  %5 = load ptr, ptr %4, align 8
  %6 = getelementptr inbounds %struct.lzw_internal_state, ptr %5, i32 0, i32 9
  %7 = load ptr, ptr %6, align 8
  call void @free(ptr noundef %7) #5
  %8 = load ptr, ptr %2, align 8
  %9 = getelementptr inbounds %struct.lzw_stream_s, ptr %8, i32 0, i32 8
  %10 = load ptr, ptr %9, align 8
  call void @free(ptr noundef %10) #5
  %11 = load ptr, ptr %2, align 8
  %12 = getelementptr inbounds %struct.lzw_stream_s, ptr %11, i32 0, i32 8
  store ptr null, ptr %12, align 8
  ret i32 0
}