; Function Attrs: mustprogress nounwind willreturn uwtable
define noundef i32 @lzwInflateEnd(ptr nocapture noundef %0) local_unnamed_addr #4 {
  %2 = getelementptr inbounds i8, ptr %0, i64 48
  %3 = load ptr, ptr %2, align 8
  %4 = getelementptr inbounds i8, ptr %3, i64 72
  %5 = load ptr, ptr %4, align 8
  tail call void @free(ptr noundef %5) #8
  %6 = load ptr, ptr %2, align 8
  tail call void @free(ptr noundef %6) #8
  store ptr null, ptr %2, align 8
  ret i32 0
}